target datalayout = "e-m:e-p270:32:32-p271:32:32-p272:64:64-i64:64-i128:128-f80:128-n8:16:32:64-S128"
target triple = "x86_64-unknown-linux-gnu"

%"class.google::protobuf::internal::InternalMetadata" = type { i64 }
%"class.google::protobuf::MessageLite" = type { ptr, %"class.google::protobuf::internal::InternalMetadata" }

; Function Attrs: mustprogress uwtable
define linkonce_odr hidden void @_ZN6google8protobuf5Value9MergeFromERKS1_(ptr noundef nonnull align 8 dereferenceable(32) %this, ptr noundef nonnull align 8 dereferenceable(32) %from) #4 comdat align 2 {
entry:
  %this.addr = alloca ptr, align 8
  %from.addr = alloca ptr, align 8
  store ptr %this, ptr %this.addr, align 8
  store ptr %from, ptr %from.addr, align 8
  %this1 = load ptr, ptr %this.addr, align 8
  %0 = load ptr, ptr %from.addr, align 8
  call void @_ZN6google8protobuf5Value9MergeImplERNS0_11MessageLiteERKS2_(ptr noundef nonnull align 8 dereferenceable(16) %this1, ptr noundef nonnull align 8 dereferenceable(16) %0)
  ret void
}

; Function Attrs: mustprogress uwtable
define void @_ZN6google8protobuf5Value5ClearEv(ptr noundef nonnull align 8 dereferenceable(32) %this) unnamed_addr #4 align 2 {
entry:
  %this.addr.i5 = alloca ptr, align 8
  %this.addr.i2 = alloca ptr, align 8
  %this.addr.i = alloca ptr, align 8
  %this.addr = alloca ptr, align 8
  %cached_has_bits = alloca i32, align 4
  store ptr %this, ptr %this.addr, align 8
  %this1 = load ptr, ptr %this.addr, align 8
  store i32 0, ptr %cached_has_bits, align 4
  call void @_ZN6google8protobuf5Value10clear_kindEv(ptr noundef nonnull align 8 dereferenceable(32) %this1)
  %_internal_metadata_ = getelementptr inbounds %"class.google::protobuf::MessageLite", ptr %this1, i32 0, i32 1
  store ptr %_internal_metadata_, ptr %this.addr.i, align 8
  %this1.i = load ptr, ptr %this.addr.i, align 8
  store ptr %this1.i, ptr %this.addr.i2, align 8
  %this1.i3 = load ptr, ptr %this.addr.i2, align 8
  store ptr %this1.i3, ptr %this.addr.i5, align 8
  %this1.i6 = load ptr, ptr %this.addr.i5, align 8
  %0 = load i64, ptr %this1.i6, align 8
  %and.i = and i64 %0, 1
  %tobool.i = icmp ne i64 %and.i, 0
  br i1 %tobool.i, label %if.then.i, label %_ZN6google8protobuf8internal16InternalMetadata5ClearINS0_15UnknownFieldSetEEEvv.exit

if.then.i:                                        ; preds = %entry
  call void @_ZN6google8protobuf8internal16InternalMetadata7DoClearINS0_15UnknownFieldSetEEEvv(ptr noundef nonnull align 8 dereferenceable(8) %this1.i)
  br label %_ZN6google8protobuf8internal16InternalMetadata5ClearINS0_15UnknownFieldSetEEEvv.exit

_ZN6google8protobuf8internal16InternalMetadata5ClearINS0_15UnknownFieldSetEEEvv.exit: ; preds = %if.then.i, %entry
  ret void
}

; Function Attrs: mustprogress uwtable
define void @_ZN6google8protobuf5Value8CopyFromERKS1_(ptr noundef nonnull align 8 dereferenceable(32) %this, ptr noundef nonnull align 8 dereferenceable(32) %from) #4 align 2 {
entry:
  %this.addr = alloca ptr, align 8
  %from.addr = alloca ptr, align 8
  store ptr %this, ptr %this.addr, align 8
  store ptr %from, ptr %from.addr, align 8
  %this1 = load ptr, ptr %this.addr, align 8
  %0 = load ptr, ptr %from.addr, align 8
  %cmp = icmp eq ptr %0, %this1
  br i1 %cmp, label %if.then, label %if.end

if.then:                                          ; preds = %entry
  br label %return

if.end:                                           ; preds = %entry
  call void @_ZN6google8protobuf5Value5ClearEv(ptr noundef nonnull align 8 dereferenceable(32) %this1)
  %1 = load ptr, ptr %from.addr, align 8
  call void @_ZN6google8protobuf5Value9MergeFromERKS1_(ptr noundef nonnull align 8 dereferenceable(32) %this1, ptr noundef nonnull align 8 dereferenceable(32) %1)
  br label %return

return:                                           ; preds = %if.end, %if.then
  ret void
}